target datalayout = "e-m:e-p270:32:32-p271:32:32-p272:64:64-i64:64-i128:128-f80:128-n8:16:32:64-S128"
target triple = "x86_64-pc-linux-gnu"

; Function Attrs: inlinehint nounwind uwtable
define internal void @vu9_to_vu12_c(ptr noundef %0, ptr noundef %1, ptr noundef %2, ptr noundef %3, i32 noundef %4, i32 noundef %5, i32 noundef %6, i32 noundef %7, i32 noundef %8, i32 noundef %9) #4 {
  %11 = alloca ptr, align 8
  %12 = alloca ptr, align 8
  %13 = alloca ptr, align 8
  %14 = alloca ptr, align 8
  %15 = alloca i32, align 4
  %16 = alloca i32, align 4
  %17 = alloca i32, align 4
  %18 = alloca i32, align 4
  %19 = alloca i32, align 4
  %20 = alloca i32, align 4
  %21 = alloca i32, align 4
  %22 = alloca i32, align 4
  %23 = alloca i32, align 4
  %24 = alloca i32, align 4
  %25 = alloca ptr, align 8
  %26 = alloca ptr, align 8
  %27 = alloca ptr, align 8
  %28 = alloca ptr, align 8
  store ptr %0, ptr %11, align 8, !tbaa !4
  store ptr %1, ptr %12, align 8, !tbaa !4
  store ptr %2, ptr %13, align 8, !tbaa !4
  store ptr %3, ptr %14, align 8, !tbaa !4
  store i32 %4, ptr %15, align 4, !tbaa !9
  store i32 %5, ptr %16, align 4, !tbaa !9
  store i32 %6, ptr %17, align 4, !tbaa !9
  store i32 %7, ptr %18, align 4, !tbaa !9
  store i32 %8, ptr %19, align 4, !tbaa !9
  store i32 %9, ptr %20, align 4, !tbaa !9
  call void @llvm.lifetime.start.p0(i64 4, ptr %21) #5
  call void @llvm.lifetime.start.p0(i64 4, ptr %22) #5
  call void @llvm.lifetime.start.p0(i64 4, ptr %23) #5
  %29 = load i32, ptr %15, align 4, !tbaa !9
  %30 = sdiv i32 %29, 2
  store i32 %30, ptr %23, align 4, !tbaa !9
  call void @llvm.lifetime.start.p0(i64 4, ptr %24) #5
  %31 = load i32, ptr %16, align 4, !tbaa !9
  %32 = sdiv i32 %31, 2
  store i32 %32, ptr %24, align 4, !tbaa !9
  store i32 0, ptr %22, align 4, !tbaa !9
  br label %33

33:                                               ; preds = %76, %10
  %34 = load i32, ptr %22, align 4, !tbaa !9
  %35 = load i32, ptr %24, align 4, !tbaa !9
  %36 = icmp slt i32 %34, %35
  br i1 %36, label %37, label %79

37:                                               ; preds = %33
  call void @llvm.lifetime.start.p0(i64 8, ptr %25) #5
  %38 = load ptr, ptr %11, align 8, !tbaa !4
  %39 = load i32, ptr %17, align 4, !tbaa !9
  %40 = load i32, ptr %22, align 4, !tbaa !9
  %41 = ashr i32 %40, 1
  %42 = mul nsw i32 %39, %41
  %43 = sext i32 %42 to i64
  %44 = getelementptr inbounds i8, ptr %38, i64 %43
  store ptr %44, ptr %25, align 8, !tbaa !4
  call void @llvm.lifetime.start.p0(i64 8, ptr %26) #5
  %45 = load ptr, ptr %13, align 8, !tbaa !4
  %46 = load i32, ptr %19, align 4, !tbaa !9
  %47 = load i32, ptr %22, align 4, !tbaa !9
  %48 = mul nsw i32 %46, %47
  %49 = sext i32 %48 to i64
  %50 = getelementptr inbounds i8, ptr %45, i64 %49
  store ptr %50, ptr %26, align 8, !tbaa !4
  store i32 0, ptr %21, align 4, !tbaa !9
  br label %51

51:                                               ; preds = %72, %37
  %52 = load i32, ptr %21, align 4, !tbaa !9
  %53 = load i32, ptr %23, align 4, !tbaa !9
  %54 = icmp slt i32 %52, %53
  br i1 %54, label %55, label %75

55:                                               ; preds = %51
  %56 = load ptr, ptr %25, align 8, !tbaa !4
  %57 = load i32, ptr %21, align 4, !tbaa !9
  %58 = sext i32 %57 to i64
  %59 = getelementptr inbounds i8, ptr %56, i64 %58
  %60 = load i8, ptr %59, align 1, !tbaa !13
  %61 = load ptr, ptr %26, align 8, !tbaa !4
  %62 = load i32, ptr %21, align 4, !tbaa !9
  %63 = mul nsw i32 2, %62
  %64 = add nsw i32 %63, 1
  %65 = sext i32 %64 to i64
  %66 = getelementptr inbounds i8, ptr %61, i64 %65
  store i8 %60, ptr %66, align 1, !tbaa !13
  %67 = load ptr, ptr %26, align 8, !tbaa !4
  %68 = load i32, ptr %21, align 4, !tbaa !9
  %69 = mul nsw i32 2, %68
  %70 = sext i32 %69 to i64
  %71 = getelementptr inbounds i8, ptr %67, i64 %70
  store i8 %60, ptr %71, align 1, !tbaa !13
  br label %72

72:                                               ; preds = %55
  %73 = load i32, ptr %21, align 4, !tbaa !9
  %74 = add nsw i32 %73, 1
  store i32 %74, ptr %21, align 4, !tbaa !9
  br label %51, !llvm.loop !89

75:                                               ; preds = %51
  call void @llvm.lifetime.end.p0(i64 8, ptr %26) #5
  call void @llvm.lifetime.end.p0(i64 8, ptr %25) #5
  br label %76

76:                                               ; preds = %75
  %77 = load i32, ptr %22, align 4, !tbaa !9
  %78 = add nsw i32 %77, 1
  store i32 %78, ptr %22, align 4, !tbaa !9
  br label %33, !llvm.loop !90

79:                                               ; preds = %33
  store i32 0, ptr %22, align 4, !tbaa !9
  br label %80

80:                                               ; preds = %123, %79
  %81 = load i32, ptr %22, align 4, !tbaa !9
  %82 = load i32, ptr %24, align 4, !tbaa !9
  %83 = icmp slt i32 %81, %82
  br i1 %83, label %84, label %126

84:                                               ; preds = %80
  call void @llvm.lifetime.start.p0(i64 8, ptr %27) #5
  %85 = load ptr, ptr %12, align 8, !tbaa !4
  %86 = load i32, ptr %18, align 4, !tbaa !9
  %87 = load i32, ptr %22, align 4, !tbaa !9
  %88 = ashr i32 %87, 1
  %89 = mul nsw i32 %86, %88
  %90 = sext i32 %89 to i64
  %91 = getelementptr inbounds i8, ptr %85, i64 %90
  store ptr %91, ptr %27, align 8, !tbaa !4
  call void @llvm.lifetime.start.p0(i64 8, ptr %28) #5
  %92 = load ptr, ptr %14, align 8, !tbaa !4
  %93 = load i32, ptr %20, align 4, !tbaa !9
  %94 = load i32, ptr %22, align 4, !tbaa !9
  %95 = mul nsw i32 %93, %94
  %96 = sext i32 %95 to i64
  %97 = getelementptr inbounds i8, ptr %92, i64 %96
  store ptr %97, ptr %28, align 8, !tbaa !4
  store i32 0, ptr %21, align 4, !tbaa !9
  br label %98

98:                                               ; preds = %119, %84
  %99 = load i32, ptr %21, align 4, !tbaa !9
  %100 = load i32, ptr %23, align 4, !tbaa !9
  %101 = icmp slt i32 %99, %100
  br i1 %101, label %102, label %122

102:                                              ; preds = %98
  %103 = load ptr, ptr %27, align 8, !tbaa !4
  %104 = load i32, ptr %21, align 4, !tbaa !9
  %105 = sext i32 %104 to i64
  %106 = getelementptr inbounds i8, ptr %103, i64 %105
  %107 = load i8, ptr %106, align 1, !tbaa !13
  %108 = load ptr, ptr %28, align 8, !tbaa !4
  %109 = load i32, ptr %21, align 4, !tbaa !9
  %110 = mul nsw i32 2, %109
  %111 = add nsw i32 %110, 1
  %112 = sext i32 %111 to i64
  %113 = getelementptr inbounds i8, ptr %108, i64 %112
  store i8 %107, ptr %113, align 1, !tbaa !13
  %114 = load ptr, ptr %28, align 8, !tbaa !4
  %115 = load i32, ptr %21, align 4, !tbaa !9
  %116 = mul nsw i32 2, %115
  %117 = sext i32 %116 to i64
  %118 = getelementptr inbounds i8, ptr %114, i64 %117
  store i8 %107, ptr %118, align 1, !tbaa !13
  br label %119

119:                                              ; preds = %102
  %120 = load i32, ptr %21, align 4, !tbaa !9
  %121 = add nsw i32 %120, 1
  store i32 %121, ptr %21, align 4, !tbaa !9
  br label %98, !llvm.loop !91

122:                                              ; preds = %98
  call void @llvm.lifetime.end.p0(i64 8, ptr %28) #5
  call void @llvm.lifetime.end.p0(i64 8, ptr %27) #5
  br label %123

123:                                              ; preds = %122
  %124 = load i32, ptr %22, align 4, !tbaa !9
  %125 = add nsw i32 %124, 1
  store i32 %125, ptr %22, align 4, !tbaa !9
  br label %80, !llvm.loop !92

126:                                              ; preds = %80
  call void @llvm.lifetime.end.p0(i64 4, ptr %24) #5
  call void @llvm.lifetime.end.p0(i64 4, ptr %23) #5
  call void @llvm.lifetime.end.p0(i64 4, ptr %22) #5
  call void @llvm.lifetime.end.p0(i64 4, ptr %21) #5
  ret void
}