; Function Attrs: inlinehint nofree norecurse nosync nounwind memory(argmem: readwrite) uwtable
define internal void @vu9_to_vu12_c(ptr noundef readonly captures(none) %0, ptr noundef readonly captures(none) %1, ptr noundef writeonly captures(none) %2, ptr noundef writeonly captures(none) %3, i32 noundef %4, i32 noundef %5, i32 noundef %6, i32 noundef %7, i32 noundef %8, i32 noundef %9) #3 {
  %11 = sdiv i32 %4, 2
  %12 = sdiv i32 %5, 2
  %13 = icmp sgt i32 %5, 1
  %14 = icmp sgt i32 %4, 1
  %or.cond = and i1 %13, %14
  br i1 %or.cond, label %.lr.ph.us.preheader, label %._crit_edge47

.lr.ph.us.preheader:                              ; preds = %10
  %15 = sext i32 %8 to i64
  %wide.trip.count56 = zext nneg i32 %12 to i64
  %wide.trip.count = zext nneg i32 %11 to i64
  br label %.lr.ph.us

.lr.ph.us:                                        ; preds = %.lr.ph.us.preheader, %._crit_edge.us
  %indvars.iv53 = phi i64 [ 0, %.lr.ph.us.preheader ], [ %indvars.iv.next54, %._crit_edge.us ]
  %16 = trunc nuw nsw i64 %indvars.iv53 to i32
  %17 = lshr i32 %16, 1
  %18 = mul nsw i32 %17, %6
  %19 = sext i32 %18 to i64
  %20 = getelementptr inbounds i8, ptr %0, i64 %19
  %21 = mul nsw i64 %indvars.iv53, %15
  %22 = getelementptr inbounds i8, ptr %2, i64 %21
  br label %23

23:                                               ; preds = %.lr.ph.us, %23
  %indvars.iv = phi i64 [ 0, %.lr.ph.us ], [ %indvars.iv.next, %23 ]
  %24 = getelementptr inbounds nuw i8, ptr %20, i64 %indvars.iv
  %25 = load i8, ptr %24, align 1, !tbaa !8
  %26 = shl nuw nsw i64 %indvars.iv, 1
  %27 = getelementptr inbounds nuw i8, ptr %22, i64 %26
  %28 = getelementptr inbounds nuw i8, ptr %27, i64 1
  store i8 %25, ptr %28, align 1, !tbaa !8
  store i8 %25, ptr %27, align 1, !tbaa !8
  %indvars.iv.next = add nuw nsw i64 %indvars.iv, 1
  %exitcond.not = icmp eq i64 %indvars.iv.next, %wide.trip.count
  br i1 %exitcond.not, label %._crit_edge.us, label %23, !llvm.loop !87

._crit_edge.us:                                   ; preds = %23
  %indvars.iv.next54 = add nuw nsw i64 %indvars.iv53, 1
  %exitcond57.not = icmp eq i64 %indvars.iv.next54, %wide.trip.count56
  br i1 %exitcond57.not, label %.preheader, label %.lr.ph.us, !llvm.loop !88

.preheader:                                       ; preds = %._crit_edge.us
  %29 = icmp sgt i32 %4, 1
  %or.cond69 = and i1 %13, %29
  br i1 %or.cond69, label %.lr.ph.us48.preheader, label %._crit_edge47

.lr.ph.us48.preheader:                            ; preds = %.preheader
  %30 = sext i32 %9 to i64
  %wide.trip.count66 = zext nneg i32 %12 to i64
  %wide.trip.count61 = zext nneg i32 %11 to i64
  br label %.lr.ph.us48

.lr.ph.us48:                                      ; preds = %.lr.ph.us48.preheader, %._crit_edge.us49
  %indvars.iv63 = phi i64 [ 0, %.lr.ph.us48.preheader ], [ %indvars.iv.next64, %._crit_edge.us49 ]
  %31 = trunc nuw nsw i64 %indvars.iv63 to i32
  %32 = lshr i32 %31, 1
  %33 = mul nsw i32 %32, %7
  %34 = sext i32 %33 to i64
  %35 = getelementptr inbounds i8, ptr %1, i64 %34
  %36 = mul nsw i64 %indvars.iv63, %30
  %37 = getelementptr inbounds i8, ptr %3, i64 %36
  br label %38

38:                                               ; preds = %.lr.ph.us48, %38
  %indvars.iv58 = phi i64 [ 0, %.lr.ph.us48 ], [ %indvars.iv.next59, %38 ]
  %39 = getelementptr inbounds nuw i8, ptr %35, i64 %indvars.iv58
  %40 = load i8, ptr %39, align 1, !tbaa !8
  %41 = shl nuw nsw i64 %indvars.iv58, 1
  %42 = getelementptr inbounds nuw i8, ptr %37, i64 %41
  %43 = getelementptr inbounds nuw i8, ptr %42, i64 1
  store i8 %40, ptr %43, align 1, !tbaa !8
  store i8 %40, ptr %42, align 1, !tbaa !8
  %indvars.iv.next59 = add nuw nsw i64 %indvars.iv58, 1
  %exitcond62.not = icmp eq i64 %indvars.iv.next59, %wide.trip.count61
  br i1 %exitcond62.not, label %._crit_edge.us49, label %38, !llvm.loop !89

._crit_edge.us49:                                 ; preds = %38
  %indvars.iv.next64 = add nuw nsw i64 %indvars.iv63, 1
  %exitcond67.not = icmp eq i64 %indvars.iv.next64, %wide.trip.count66
  br i1 %exitcond67.not, label %._crit_edge47, label %.lr.ph.us48, !llvm.loop !90

._crit_edge47:                                    ; preds = %._crit_edge.us49, %10, %.preheader
  ret void
}